target datalayout = "e-m:e-p270:32:32-p271:32:32-p272:64:64-i64:64-i128:128-f80:128-n8:16:32:64-S128"
target triple = "x86_64-pc-linux-gnu"

; Function Attrs: mustprogress nounwind uwtable
define noundef signext i8 @_ZN6icu_7712PatternProps12isWhiteSpaceEi(i32 noundef %0) #0 align 2 {
  %2 = alloca i8, align 1
  %3 = alloca i32, align 4
  store i32 %0, ptr %3, align 4, !tbaa !3
  %4 = load i32, ptr %3, align 4, !tbaa !3
  %5 = icmp slt i32 %4, 0
  br i1 %5, label %6, label %7

6:                                                ; preds = %1
  store i8 0, ptr %2, align 1
  br label %35

7:                                                ; preds = %1
  %8 = load i32, ptr %3, align 4, !tbaa !3
  %9 = icmp sle i32 %8, 255
  br i1 %9, label %10, label %19

10:                                               ; preds = %7
  %11 = load i32, ptr %3, align 4, !tbaa !3
  %12 = sext i32 %11 to i64
  %13 = getelementptr inbounds [256 x i8], ptr @_ZN6icu_77L6latin1E, i64 0, i64 %12
  %14 = load i8, ptr %13, align 1, !tbaa !7
  %15 = zext i8 %14 to i32
  %16 = ashr i32 %15, 2
  %17 = and i32 %16, 1
  %18 = trunc i32 %17 to i8
  store i8 %18, ptr %2, align 1
  br label %35

19:                                               ; preds = %7
  %20 = load i32, ptr %3, align 4, !tbaa !3
  %21 = icmp sle i32 8206, %20
  br i1 %21, label %22, label %34

22:                                               ; preds = %19
  %23 = load i32, ptr %3, align 4, !tbaa !3
  %24 = icmp sle i32 %23, 8233
  br i1 %24, label %25, label %34

25:                                               ; preds = %22
  %26 = load i32, ptr %3, align 4, !tbaa !3
  %27 = icmp sle i32 %26, 8207
  br i1 %27, label %31, label %28

28:                                               ; preds = %25
  %29 = load i32, ptr %3, align 4, !tbaa !3
  %30 = icmp sle i32 8232, %29
  br label %31

31:                                               ; preds = %28, %25
  %32 = phi i1 [ true, %25 ], [ %30, %28 ]
  %33 = zext i1 %32 to i8
  store i8 %33, ptr %2, align 1
  br label %35

34:                                               ; preds = %22, %19
  store i8 0, ptr %2, align 1
  br label %35

35:                                               ; preds = %34, %31, %10, %6
  %36 = load i8, ptr %2, align 1
  ret i8 %36
}

; Function Attrs: mustprogress nounwind uwtable
define noundef ptr @_ZN6icu_7712PatternProps14trimWhiteSpaceEPKDsRi(ptr noundef %0, ptr noundef nonnull align 4 dereferenceable(4) %1) #0 align 2 {
  %3 = alloca ptr, align 8
  %4 = alloca ptr, align 8
  %5 = alloca ptr, align 8
  %6 = alloca i32, align 4
  %7 = alloca i32, align 4
  store ptr %0, ptr %4, align 8, !tbaa !8
  store ptr %1, ptr %5, align 8, !tbaa !18
  %8 = load ptr, ptr %5, align 8, !tbaa !18
  %9 = load i32, ptr %8, align 4, !tbaa !3
  %10 = icmp sle i32 %9, 0
  br i1 %10, label %29, label %11

11:                                               ; preds = %2
  %12 = load ptr, ptr %4, align 8, !tbaa !8
  %13 = getelementptr inbounds i16, ptr %12, i64 0
  %14 = load i16, ptr %13, align 2, !tbaa !11
  %15 = zext i16 %14 to i32
  %16 = call noundef signext i8 @_ZN6icu_7712PatternProps12isWhiteSpaceEi(i32 noundef %15)
  %17 = icmp ne i8 %16, 0
  br i1 %17, label %31, label %18

18:                                               ; preds = %11
  %19 = load ptr, ptr %4, align 8, !tbaa !8
  %20 = load ptr, ptr %5, align 8, !tbaa !18
  %21 = load i32, ptr %20, align 4, !tbaa !3
  %22 = sub nsw i32 %21, 1
  %23 = sext i32 %22 to i64
  %24 = getelementptr inbounds i16, ptr %19, i64 %23
  %25 = load i16, ptr %24, align 2, !tbaa !11
  %26 = zext i16 %25 to i32
  %27 = call noundef signext i8 @_ZN6icu_7712PatternProps12isWhiteSpaceEi(i32 noundef %26)
  %28 = icmp ne i8 %27, 0
  br i1 %28, label %31, label %29

29:                                               ; preds = %18, %2
  %30 = load ptr, ptr %4, align 8, !tbaa !8
  store ptr %30, ptr %3, align 8
  br label %80

31:                                               ; preds = %18, %11
  call void @llvm.lifetime.start.p0(i64 4, ptr %6) #5
  store i32 0, ptr %6, align 4, !tbaa !3
  call void @llvm.lifetime.start.p0(i64 4, ptr %7) #5
  %32 = load ptr, ptr %5, align 8, !tbaa !18
  %33 = load i32, ptr %32, align 4, !tbaa !3
  store i32 %33, ptr %7, align 4, !tbaa !3
  br label %34

34:                                               ; preds = %49, %31
  %35 = load i32, ptr %6, align 4, !tbaa !3
  %36 = load i32, ptr %7, align 4, !tbaa !3
  %37 = icmp slt i32 %35, %36
  br i1 %37, label %38, label %47

38:                                               ; preds = %34
  %39 = load ptr, ptr %4, align 8, !tbaa !8
  %40 = load i32, ptr %6, align 4, !tbaa !3
  %41 = sext i32 %40 to i64
  %42 = getelementptr inbounds i16, ptr %39, i64 %41
  %43 = load i16, ptr %42, align 2, !tbaa !11
  %44 = zext i16 %43 to i32
  %45 = call noundef signext i8 @_ZN6icu_7712PatternProps12isWhiteSpaceEi(i32 noundef %44)
  %46 = icmp ne i8 %45, 0
  br label %47

47:                                               ; preds = %38, %34
  %48 = phi i1 [ false, %34 ], [ %46, %38 ]
  br i1 %48, label %49, label %52

49:                                               ; preds = %47
  %50 = load i32, ptr %6, align 4, !tbaa !3
  %51 = add nsw i32 %50, 1
  store i32 %51, ptr %6, align 4, !tbaa !3
  br label %34, !llvm.loop !20

52:                                               ; preds = %47
  %53 = load i32, ptr %6, align 4, !tbaa !3
  %54 = load i32, ptr %7, align 4, !tbaa !3
  %55 = icmp slt i32 %53, %54
  br i1 %55, label %56, label %71

56:                                               ; preds = %52
  br label %57

57:                                               ; preds = %67, %56
  %58 = load ptr, ptr %4, align 8, !tbaa !8
  %59 = load i32, ptr %7, align 4, !tbaa !3
  %60 = sub nsw i32 %59, 1
  %61 = sext i32 %60 to i64
  %62 = getelementptr inbounds i16, ptr %58, i64 %61
  %63 = load i16, ptr %62, align 2, !tbaa !11
  %64 = zext i16 %63 to i32
  %65 = call noundef signext i8 @_ZN6icu_7712PatternProps12isWhiteSpaceEi(i32 noundef %64)
  %66 = icmp ne i8 %65, 0
  br i1 %66, label %67, label %70

67:                                               ; preds = %57
  %68 = load i32, ptr %7, align 4, !tbaa !3
  %69 = add nsw i32 %68, -1
  store i32 %69, ptr %7, align 4, !tbaa !3
  br label %57, !llvm.loop !21

70:                                               ; preds = %57
  br label %71

71:                                               ; preds = %70, %52
  %72 = load i32, ptr %7, align 4, !tbaa !3
  %73 = load i32, ptr %6, align 4, !tbaa !3
  %74 = sub nsw i32 %72, %73
  %75 = load ptr, ptr %5, align 8, !tbaa !18
  store i32 %74, ptr %75, align 4, !tbaa !3
  %76 = load ptr, ptr %4, align 8, !tbaa !8
  %77 = load i32, ptr %6, align 4, !tbaa !3
  %78 = sext i32 %77 to i64
  %79 = getelementptr inbounds i16, ptr %76, i64 %78
  store ptr %79, ptr %3, align 8
  call void @llvm.lifetime.end.p0(i64 4, ptr %7) #5
  call void @llvm.lifetime.end.p0(i64 4, ptr %6) #5
  br label %80

80:                                               ; preds = %71, %29
  %81 = load ptr, ptr %3, align 8
  ret ptr %81
}