; Function Attrs: mustprogress nofree norecurse nosync nounwind memory(argmem: readwrite) uwtable
define noundef ptr @_ZN6icu_7712PatternProps14trimWhiteSpaceEPKDsRi(ptr noundef readonly %0, ptr noundef nonnull align 4 captures(none) dereferenceable(4) %1) local_unnamed_addr #3 align 2 {
  %3 = load i32, ptr %1, align 4, !tbaa !6
  %4 = icmp slt i32 %3, 1
  br i1 %4, label %_ZN6icu_7712PatternProps12isWhiteSpaceEi.exit31.thread, label %5

5:                                                ; preds = %2
  %6 = load i16, ptr %0, align 2, !tbaa !8
  %7 = icmp ult i16 %6, 256
  br i1 %7, label %8, label %14

8:                                                ; preds = %5
  %9 = zext nneg i16 %6 to i64
  %10 = getelementptr inbounds nuw [256 x i8], ptr @_ZN6icu_77L6latin1E, i64 0, i64 %9
  %11 = load i8, ptr %10, align 1, !tbaa !3
  %12 = and i8 %11, 4
  %13 = icmp eq i8 %12, 0
  br i1 %13, label %_ZN6icu_7712PatternProps12isWhiteSpaceEi.exit.thread, label %.lr.ph.preheader

14:                                               ; preds = %5
  %15 = add i16 %6, -8234
  %or.cond.i = icmp ult i16 %15, -28
  %16 = add nsw i16 %6, -8208
  %17 = icmp ult i16 %16, 24
  %or.cond = select i1 %or.cond.i, i1 true, i1 %17
  br i1 %or.cond, label %_ZN6icu_7712PatternProps12isWhiteSpaceEi.exit.thread, label %.lr.ph.preheader

_ZN6icu_7712PatternProps12isWhiteSpaceEi.exit.thread: ; preds = %8, %14
  %18 = zext nneg i32 %3 to i64
  %19 = getelementptr i16, ptr %0, i64 %18
  %20 = getelementptr i8, ptr %19, i64 -2
  %21 = load i16, ptr %20, align 2, !tbaa !8
  %22 = icmp ult i16 %21, 256
  br i1 %22, label %23, label %29

23:                                               ; preds = %_ZN6icu_7712PatternProps12isWhiteSpaceEi.exit.thread
  %24 = zext nneg i16 %21 to i64
  %25 = getelementptr inbounds nuw [256 x i8], ptr @_ZN6icu_77L6latin1E, i64 0, i64 %24
  %26 = load i8, ptr %25, align 1, !tbaa !3
  %27 = and i8 %26, 4
  %28 = icmp eq i8 %27, 0
  br i1 %28, label %_ZN6icu_7712PatternProps12isWhiteSpaceEi.exit31.thread, label %.lr.ph.preheader

29:                                               ; preds = %_ZN6icu_7712PatternProps12isWhiteSpaceEi.exit.thread
  %30 = add i16 %21, -8234
  %or.cond.i29 = icmp ult i16 %30, -28
  %31 = add nsw i16 %21, -8208
  %32 = icmp ult i16 %31, 24
  %or.cond61 = select i1 %or.cond.i29, i1 true, i1 %32
  br i1 %or.cond61, label %_ZN6icu_7712PatternProps12isWhiteSpaceEi.exit31.thread, label %.lr.ph.preheader

.lr.ph.preheader:                                 ; preds = %29, %14, %8, %23
  %wide.trip.count = zext nneg i32 %3 to i64
  br label %.lr.ph

.lr.ph:                                           ; preds = %.lr.ph.preheader, %46
  %indvars.iv = phi i64 [ 0, %.lr.ph.preheader ], [ %indvars.iv.next, %46 ]
  %33 = getelementptr inbounds nuw i16, ptr %0, i64 %indvars.iv
  %34 = load i16, ptr %33, align 2, !tbaa !8
  %35 = icmp ult i16 %34, 256
  br i1 %35, label %36, label %42

36:                                               ; preds = %.lr.ph
  %37 = zext nneg i16 %34 to i64
  %38 = getelementptr inbounds nuw [256 x i8], ptr @_ZN6icu_77L6latin1E, i64 0, i64 %37
  %39 = load i8, ptr %38, align 1, !tbaa !3
  %40 = and i8 %39, 4
  %41 = icmp eq i8 %40, 0
  br i1 %41, label %.critedge, label %46

42:                                               ; preds = %.lr.ph
  %43 = add i16 %34, -8234
  %or.cond.i32 = icmp ult i16 %43, -28
  %44 = add nsw i16 %34, -8208
  %45 = icmp ult i16 %44, 24
  %or.cond63 = select i1 %or.cond.i32, i1 true, i1 %45
  br i1 %or.cond63, label %.critedge, label %46

46:                                               ; preds = %42, %36
  %indvars.iv.next = add nuw nsw i64 %indvars.iv, 1
  %exitcond.not = icmp eq i64 %indvars.iv.next, %wide.trip.count
  br i1 %exitcond.not, label %.critedge28, label %.lr.ph, !llvm.loop !13

.critedge:                                        ; preds = %36, %42
  %47 = trunc nuw nsw i64 %indvars.iv to i32
  %invariant.gep = getelementptr i8, ptr %0, i64 -2
  %48 = zext nneg i32 %3 to i64
  br label %49

49:                                               ; preds = %.critedge, %62
  %indvars.iv53 = phi i64 [ %48, %.critedge ], [ %indvars.iv.next54, %62 ]
  %gep = getelementptr i16, ptr %invariant.gep, i64 %indvars.iv53
  %50 = load i16, ptr %gep, align 2, !tbaa !8
  %51 = icmp ult i16 %50, 256
  br i1 %51, label %52, label %58

52:                                               ; preds = %49
  %53 = zext nneg i16 %50 to i64
  %54 = getelementptr inbounds nuw [256 x i8], ptr @_ZN6icu_77L6latin1E, i64 0, i64 %53
  %55 = load i8, ptr %54, align 1, !tbaa !3
  %56 = and i8 %55, 4
  %57 = icmp eq i8 %56, 0
  br i1 %57, label %.critedge28.loopexit, label %62

58:                                               ; preds = %49
  %59 = add i16 %50, -8234
  %or.cond.i35 = icmp ult i16 %59, -28
  %60 = add nsw i16 %50, -8208
  %61 = icmp ult i16 %60, 24
  %or.cond65 = select i1 %or.cond.i35, i1 true, i1 %61
  br i1 %or.cond65, label %.critedge28.loopexit, label %62

62:                                               ; preds = %58, %52
  %indvars.iv.next54 = add nsw i64 %indvars.iv53, -1
  br label %49, !llvm.loop !14

.critedge28.loopexit:                             ; preds = %52, %58
  %63 = trunc nsw i64 %indvars.iv53 to i32
  br label %.critedge28

.critedge28:                                      ; preds = %46, %.critedge28.loopexit
  %.02148 = phi i32 [ %47, %.critedge28.loopexit ], [ %3, %46 ]
  %.0 = phi i32 [ %63, %.critedge28.loopexit ], [ %3, %46 ]
  %64 = sub nsw i32 %.0, %.02148
  store i32 %64, ptr %1, align 4, !tbaa !6
  %65 = zext nneg i32 %.02148 to i64
  %66 = getelementptr inbounds nuw i16, ptr %0, i64 %65
  br label %_ZN6icu_7712PatternProps12isWhiteSpaceEi.exit31.thread

_ZN6icu_7712PatternProps12isWhiteSpaceEi.exit31.thread: ; preds = %23, %29, %2, %.critedge28
  %.022 = phi ptr [ %66, %.critedge28 ], [ %0, %2 ], [ %0, %29 ], [ %0, %23 ]
  ret ptr %.022
}